; Function Attrs: mustprogress nofree norecurse nosync nounwind willreturn memory(read, argmem: readwrite, inaccessiblemem: none) uwtable
define hidden void @_ZN19OpenColorIO_v2_4dev15GammaBasicOpCPUC2ERSt10shared_ptrIKNS_11GammaOpDataEE(ptr nocapture noundef nonnull writeonly align 8 dereferenceable(24) %this, ptr nocapture noundef nonnull readonly align 8 dereferenceable(16) %gamma) unnamed_addr #4 align 2 personality ptr @__gxx_personality_v0 {
entry:
  store ptr getelementptr inbounds ({ [8 x ptr] }, ptr @_ZTVN19OpenColorIO_v2_4dev15GammaBasicOpCPUE, i64 0, i32 0, i64 2), ptr %this, align 8
  %m_redGamma = getelementptr inbounds i8, ptr %this, i64 8
  %m_grnGamma = getelementptr inbounds i8, ptr %this, i64 12
  %m_bluGamma = getelementptr inbounds i8, ptr %this, i64 16
  tail call void @llvm.memset.p0.i64(ptr noundef nonnull align 8 dereferenceable(16) %m_redGamma, i8 0, i64 16, i1 false)
  %0 = load ptr, ptr %gamma, align 8
  %m_style.i.i = getelementptr inbounds i8, ptr %0, i64 168
  %1 = load i32, ptr %m_style.i.i, align 8
  switch i32 %1, label %cond.false.i [
    i32 4, label %cond.true.i
    i32 2, label %cond.true.i
    i32 0, label %cond.true.i
  ]

cond.true.i:                                      ; preds = %entry, %entry, %entry
  %m_redParams.i.i = getelementptr inbounds i8, ptr %0, i64 176
  %2 = load ptr, ptr %m_redParams.i.i, align 8
  %3 = load double, ptr %2, align 8
  br label %cond.end.i

cond.false.i:                                     ; preds = %entry
  %m_redParams.i14.i = getelementptr inbounds i8, ptr %0, i64 176
  %4 = load ptr, ptr %m_redParams.i14.i, align 8
  %5 = load double, ptr %4, align 8
  %div.i = fdiv double 1.000000e+00, %5
  br label %cond.end.i

cond.end.i:                                       ; preds = %cond.false.i, %cond.true.i
  %cond.i = phi double [ %3, %cond.true.i ], [ %div.i, %cond.false.i ]
  %conv.i = fptrunc double %cond.i to float
  store float %conv.i, ptr %m_redGamma, align 8
  switch i32 %1, label %cond.false16.i [
    i32 4, label %cond.true12.i
    i32 2, label %cond.true12.i
    i32 0, label %cond.true12.i
  ]

cond.true12.i:                                    ; preds = %cond.end.i, %cond.end.i, %cond.end.i
  %6 = load ptr, ptr %gamma, align 8
  %m_greenParams.i.i = getelementptr inbounds i8, ptr %6, i64 200
  %7 = load ptr, ptr %m_greenParams.i.i, align 8
  %8 = load double, ptr %7, align 8
  br label %cond.end21.i

cond.false16.i:                                   ; preds = %cond.end.i
  %9 = load ptr, ptr %gamma, align 8
  %m_greenParams.i15.i = getelementptr inbounds i8, ptr %9, i64 200
  %10 = load ptr, ptr %m_greenParams.i15.i, align 8
  %11 = load double, ptr %10, align 8
  %div20.i = fdiv double 1.000000e+00, %11
  br label %cond.end21.i

cond.end21.i:                                     ; preds = %cond.false16.i, %cond.true12.i
  %cond22.i = phi double [ %8, %cond.true12.i ], [ %div20.i, %cond.false16.i ]
  %conv23.i = fptrunc double %cond22.i to float
  store float %conv23.i, ptr %m_grnGamma, align 4
  switch i32 %1, label %cond.false29.i [
    i32 4, label %cond.true25.i
    i32 2, label %cond.true25.i
    i32 0, label %cond.true25.i
  ]

cond.true25.i:                                    ; preds = %cond.end21.i, %cond.end21.i, %cond.end21.i
  %12 = load ptr, ptr %gamma, align 8
  %m_blueParams.i.i = getelementptr inbounds i8, ptr %12, i64 224
  %13 = load ptr, ptr %m_blueParams.i.i, align 8
  %14 = load double, ptr %13, align 8
  br label %cond.end34.i

cond.false29.i:                                   ; preds = %cond.end21.i
  %15 = load ptr, ptr %gamma, align 8
  %m_blueParams.i16.i = getelementptr inbounds i8, ptr %15, i64 224
  %16 = load ptr, ptr %m_blueParams.i16.i, align 8
  %17 = load double, ptr %16, align 8
  %div33.i = fdiv double 1.000000e+00, %17
  br label %cond.end34.i

cond.end34.i:                                     ; preds = %cond.false29.i, %cond.true25.i
  %cond35.i = phi double [ %14, %cond.true25.i ], [ %div33.i, %cond.false29.i ]
  %conv36.i = fptrunc double %cond35.i to float
  store float %conv36.i, ptr %m_bluGamma, align 8
  switch i32 %1, label %cond.false42.i [
    i32 4, label %cond.true38.i
    i32 2, label %cond.true38.i
    i32 0, label %cond.true38.i
  ]

cond.true38.i:                                    ; preds = %cond.end34.i, %cond.end34.i, %cond.end34.i
  %18 = load ptr, ptr %gamma, align 8
  %m_alphaParams.i.i = getelementptr inbounds i8, ptr %18, i64 248
  %19 = load ptr, ptr %m_alphaParams.i.i, align 8
  %20 = load double, ptr %19, align 8
  br label %invoke.cont

cond.false42.i:                                   ; preds = %cond.end34.i
  %21 = load ptr, ptr %gamma, align 8
  %m_alphaParams.i17.i = getelementptr inbounds i8, ptr %21, i64 248
  %22 = load ptr, ptr %m_alphaParams.i17.i, align 8
  %23 = load double, ptr %22, align 8
  %div46.i = fdiv double 1.000000e+00, %23
  br label %invoke.cont

invoke.cont:                                      ; preds = %cond.false42.i, %cond.true38.i
  %cond48.i = phi double [ %20, %cond.true38.i ], [ %div46.i, %cond.false42.i ]
  %m_alpGamma = getelementptr inbounds i8, ptr %this, i64 20
  %conv49.i = fptrunc double %cond48.i to float
  store float %conv49.i, ptr %m_alpGamma, align 4
  ret void
}